
colour_detection.elf:     file format elf32-avr

Sections:
Idx Name          Size      VMA       LMA       File off  Algn
  0 .text         00000266  00000000  00000000  00000074  2**1
                  CONTENTS, ALLOC, LOAD, READONLY, CODE
  1 .data         00000012  00800060  00000266  000002da  2**0
                  CONTENTS, ALLOC, LOAD, DATA
  2 .debug_aranges 00000020  00000000  00000000  000002ec  2**0
                  CONTENTS, READONLY, DEBUGGING
  3 .debug_pubnames 00000095  00000000  00000000  0000030c  2**0
                  CONTENTS, READONLY, DEBUGGING
  4 .debug_info   000004cf  00000000  00000000  000003a1  2**0
                  CONTENTS, READONLY, DEBUGGING
  5 .debug_abbrev 000001c1  00000000  00000000  00000870  2**0
                  CONTENTS, READONLY, DEBUGGING
  6 .debug_line   0000045a  00000000  00000000  00000a31  2**0
                  CONTENTS, READONLY, DEBUGGING
  7 .debug_frame  000000b0  00000000  00000000  00000e8c  2**2
                  CONTENTS, READONLY, DEBUGGING
  8 .debug_str    0000013f  00000000  00000000  00000f3c  2**0
                  CONTENTS, READONLY, DEBUGGING
  9 .debug_loc    00000115  00000000  00000000  0000107b  2**0
                  CONTENTS, READONLY, DEBUGGING
Disassembly of section .text:

00000000 <__vectors>:
   0:	0c 94 2a 00 	jmp	0x54	; 0x54 <__ctors_end>
   4:	0c 94 47 00 	jmp	0x8e	; 0x8e <__bad_interrupt>
   8:	0c 94 47 00 	jmp	0x8e	; 0x8e <__bad_interrupt>
   c:	0c 94 47 00 	jmp	0x8e	; 0x8e <__bad_interrupt>
  10:	0c 94 47 00 	jmp	0x8e	; 0x8e <__bad_interrupt>
  14:	0c 94 47 00 	jmp	0x8e	; 0x8e <__bad_interrupt>
  18:	0c 94 47 00 	jmp	0x8e	; 0x8e <__bad_interrupt>
  1c:	0c 94 47 00 	jmp	0x8e	; 0x8e <__bad_interrupt>
  20:	0c 94 47 00 	jmp	0x8e	; 0x8e <__bad_interrupt>
  24:	0c 94 47 00 	jmp	0x8e	; 0x8e <__bad_interrupt>
  28:	0c 94 47 00 	jmp	0x8e	; 0x8e <__bad_interrupt>
  2c:	0c 94 47 00 	jmp	0x8e	; 0x8e <__bad_interrupt>
  30:	0c 94 47 00 	jmp	0x8e	; 0x8e <__bad_interrupt>
  34:	0c 94 47 00 	jmp	0x8e	; 0x8e <__bad_interrupt>
  38:	0c 94 47 00 	jmp	0x8e	; 0x8e <__bad_interrupt>
  3c:	0c 94 47 00 	jmp	0x8e	; 0x8e <__bad_interrupt>
  40:	0c 94 47 00 	jmp	0x8e	; 0x8e <__bad_interrupt>
  44:	0c 94 47 00 	jmp	0x8e	; 0x8e <__bad_interrupt>
  48:	0c 94 47 00 	jmp	0x8e	; 0x8e <__bad_interrupt>
  4c:	0c 94 47 00 	jmp	0x8e	; 0x8e <__bad_interrupt>
  50:	0c 94 47 00 	jmp	0x8e	; 0x8e <__bad_interrupt>

00000054 <__ctors_end>:
  54:	11 24       	eor	r1, r1
  56:	1f be       	out	0x3f, r1	; 63
  58:	cf e5       	ldi	r28, 0x5F	; 95
  5a:	d4 e0       	ldi	r29, 0x04	; 4
  5c:	de bf       	out	0x3e, r29	; 62
  5e:	cd bf       	out	0x3d, r28	; 61

00000060 <__do_copy_data>:
  60:	10 e0       	ldi	r17, 0x00	; 0
  62:	a0 e6       	ldi	r26, 0x60	; 96
  64:	b0 e0       	ldi	r27, 0x00	; 0
  66:	e6 e6       	ldi	r30, 0x66	; 102
  68:	f2 e0       	ldi	r31, 0x02	; 2
  6a:	02 c0       	rjmp	.+4      	; 0x70 <.do_copy_data_start>

0000006c <.do_copy_data_loop>:
  6c:	05 90       	lpm	r0, Z+
  6e:	0d 92       	st	X+, r0

00000070 <.do_copy_data_start>:
  70:	a2 37       	cpi	r26, 0x72	; 114
  72:	b1 07       	cpc	r27, r17
  74:	d9 f7       	brne	.-10     	; 0x6c <.do_copy_data_loop>

00000076 <__do_clear_bss>:
  76:	10 e0       	ldi	r17, 0x00	; 0
  78:	a2 e7       	ldi	r26, 0x72	; 114
  7a:	b0 e0       	ldi	r27, 0x00	; 0
  7c:	01 c0       	rjmp	.+2      	; 0x80 <.do_clear_bss_start>

0000007e <.do_clear_bss_loop>:
  7e:	1d 92       	st	X+, r1

00000080 <.do_clear_bss_start>:
  80:	a2 37       	cpi	r26, 0x72	; 114
  82:	b1 07       	cpc	r27, r17
  84:	e1 f7       	brne	.-8      	; 0x7e <.do_clear_bss_loop>
  86:	0e 94 cf 00 	call	0x19e	; 0x19e <main>
  8a:	0c 94 31 01 	jmp	0x262	; 0x262 <_exit>

0000008e <__bad_interrupt>:
  8e:	0c 94 00 00 	jmp	0	; 0x0 <__heap_end>

00000092 <cmd_LCD>:
	}
	return 0;
}

void cmd_LCD(unsigned char xyz)
{ 
  92:	85 bb       	out	0x15, r24	; 21
	LCD_data_cntrl=xyz;
	LCD_data_cntrl &=~ (1<<rs);
  94:	a8 98       	cbi	0x15, 0	; 21
	LCD_data_cntrl &=~ (1<<rw);
  96:	a9 98       	cbi	0x15, 1	; 21
	LCD_data_cntrl |= (1<<en);
  98:	aa 9a       	sbi	0x15, 2	; 21
    milliseconds can be achieved.
 */
void
_delay_loop_2(uint16_t __count)
{
	__asm__ volatile (
  9a:	8a ef       	ldi	r24, 0xFA	; 250
  9c:	90 e0       	ldi	r25, 0x00	; 0
  9e:	01 97       	sbiw	r24, 0x01	; 1
  a0:	f1 f7       	brne	.-4      	; 0x9e <cmd_LCD+0xc>
	_delay_ms(1);
	LCD_data_cntrl &=~ (1<<en);
  a2:	aa 98       	cbi	0x15, 2	; 21
}
  a4:	08 95       	ret

000000a6 <write_LCD>:


void write_LCD(unsigned char abc)
{
  a6:	85 bb       	out	0x15, r24	; 21

	LCD_data_cntrl=abc;
	LCD_data_cntrl |= (1<<rs);
  a8:	a8 9a       	sbi	0x15, 0	; 21
	LCD_data_cntrl &=~ (1<<rw);
  aa:	a9 98       	cbi	0x15, 1	; 21
	LCD_data_cntrl |= (1<<en);
  ac:	aa 9a       	sbi	0x15, 2	; 21
  ae:	8a ef       	ldi	r24, 0xFA	; 250
  b0:	90 e0       	ldi	r25, 0x00	; 0
  b2:	01 97       	sbiw	r24, 0x01	; 1
  b4:	f1 f7       	brne	.-4      	; 0xb2 <write_LCD+0xc>
	_delay_ms(1);
	LCD_data_cntrl &=~ (1<<en);
  b6:	aa 98       	cbi	0x15, 2	; 21
}
  b8:	08 95       	ret

000000ba <dis_cmd>:


void dis_cmd(unsigned char cmd)
{ 
  ba:	28 2f       	mov	r18, r24
  bc:	20 7f       	andi	r18, 0xF0	; 240
	return 0;
}

void cmd_LCD(unsigned char xyz)
{ 
	LCD_data_cntrl=xyz;
  be:	25 bb       	out	0x15, r18	; 21
	LCD_data_cntrl &=~ (1<<rs);
  c0:	a8 98       	cbi	0x15, 0	; 21
	LCD_data_cntrl &=~ (1<<rw);
  c2:	a9 98       	cbi	0x15, 1	; 21
	LCD_data_cntrl |= (1<<en);
  c4:	aa 9a       	sbi	0x15, 2	; 21
  c6:	2a ef       	ldi	r18, 0xFA	; 250
  c8:	30 e0       	ldi	r19, 0x00	; 0
  ca:	f9 01       	movw	r30, r18
  cc:	31 97       	sbiw	r30, 0x01	; 1
  ce:	f1 f7       	brne	.-4      	; 0xcc <dis_cmd+0x12>
	_delay_ms(1);
	LCD_data_cntrl &=~ (1<<en);
  d0:	aa 98       	cbi	0x15, 2	; 21
void dis_cmd(unsigned char cmd)
{ 
unsigned char cmd1;
cmd1 = (cmd&0xf0);
cmd_LCD(cmd1);
cmd1 = ((cmd<<4)&0xf0);
  d2:	90 e0       	ldi	r25, 0x00	; 0
  d4:	44 e0       	ldi	r20, 0x04	; 4
  d6:	88 0f       	add	r24, r24
  d8:	99 1f       	adc	r25, r25
  da:	4a 95       	dec	r20
  dc:	e1 f7       	brne	.-8      	; 0xd6 <dis_cmd+0x1c>
	return 0;
}

void cmd_LCD(unsigned char xyz)
{ 
	LCD_data_cntrl=xyz;
  de:	85 bb       	out	0x15, r24	; 21
	LCD_data_cntrl &=~ (1<<rs);
  e0:	a8 98       	cbi	0x15, 0	; 21
	LCD_data_cntrl &=~ (1<<rw);
  e2:	a9 98       	cbi	0x15, 1	; 21
	LCD_data_cntrl |= (1<<en);
  e4:	aa 9a       	sbi	0x15, 2	; 21
  e6:	c9 01       	movw	r24, r18
  e8:	01 97       	sbiw	r24, 0x01	; 1
  ea:	f1 f7       	brne	.-4      	; 0xe8 <dis_cmd+0x2e>
	_delay_ms(1);
	LCD_data_cntrl &=~ (1<<en);
  ec:	aa 98       	cbi	0x15, 2	; 21
  ee:	c9 01       	movw	r24, r18
  f0:	01 97       	sbiw	r24, 0x01	; 1
  f2:	f1 f7       	brne	.-4      	; 0xf0 <dis_cmd+0x36>
cmd1 = (cmd&0xf0);
cmd_LCD(cmd1);
cmd1 = ((cmd<<4)&0xf0);
cmd_LCD(cmd1);
_delay_ms(1);
}
  f4:	08 95       	ret

000000f6 <dis_write>:


void dis_write(unsigned char write)
{ 
  f6:	28 2f       	mov	r18, r24
  f8:	20 7f       	andi	r18, 0xF0	; 240


void write_LCD(unsigned char abc)
{

	LCD_data_cntrl=abc;
  fa:	25 bb       	out	0x15, r18	; 21
	LCD_data_cntrl |= (1<<rs);
  fc:	a8 9a       	sbi	0x15, 0	; 21
	LCD_data_cntrl &=~ (1<<rw);
  fe:	a9 98       	cbi	0x15, 1	; 21
	LCD_data_cntrl |= (1<<en);
 100:	aa 9a       	sbi	0x15, 2	; 21
 102:	2a ef       	ldi	r18, 0xFA	; 250
 104:	30 e0       	ldi	r19, 0x00	; 0
 106:	f9 01       	movw	r30, r18
 108:	31 97       	sbiw	r30, 0x01	; 1
 10a:	f1 f7       	brne	.-4      	; 0x108 <dis_write+0x12>
	_delay_ms(1);
	LCD_data_cntrl &=~ (1<<en);
 10c:	aa 98       	cbi	0x15, 2	; 21
void dis_write(unsigned char write)
{ 
unsigned char write1;
write1 = (write&0xf0);
write_LCD(write1);
write1 = ((write<<4)&0xf0);
 10e:	90 e0       	ldi	r25, 0x00	; 0
 110:	54 e0       	ldi	r21, 0x04	; 4
 112:	88 0f       	add	r24, r24
 114:	99 1f       	adc	r25, r25
 116:	5a 95       	dec	r21
 118:	e1 f7       	brne	.-8      	; 0x112 <dis_write+0x1c>


void write_LCD(unsigned char abc)
{

	LCD_data_cntrl=abc;
 11a:	85 bb       	out	0x15, r24	; 21
	LCD_data_cntrl |= (1<<rs);
 11c:	a8 9a       	sbi	0x15, 0	; 21
	LCD_data_cntrl &=~ (1<<rw);
 11e:	a9 98       	cbi	0x15, 1	; 21
	LCD_data_cntrl |= (1<<en);
 120:	aa 9a       	sbi	0x15, 2	; 21
 122:	c9 01       	movw	r24, r18
 124:	01 97       	sbiw	r24, 0x01	; 1
 126:	f1 f7       	brne	.-4      	; 0x124 <dis_write+0x2e>
	_delay_ms(1);
	LCD_data_cntrl &=~ (1<<en);
 128:	aa 98       	cbi	0x15, 2	; 21
 12a:	c9 01       	movw	r24, r18
 12c:	01 97       	sbiw	r24, 0x01	; 1
 12e:	f1 f7       	brne	.-4      	; 0x12c <dis_write+0x36>
write1 = (write&0xf0);
write_LCD(write1);
write1 = ((write<<4)&0xf0);
write_LCD(write1);
_delay_ms(1);
}
 130:	08 95       	ret

00000132 <string_LCD>:

void string_LCD(unsigned char *str)
{
 132:	cf 93       	push	r28
 134:	df 93       	push	r29
 136:	ec 01       	movw	r28, r24
 138:	02 c0       	rjmp	.+4      	; 0x13e <string_LCD+0xc>
	int i;
	
	for(i=0;str[i]!='\0';i++) 
	{	dis_write(str[i]);
 13a:	0e 94 7b 00 	call	0xf6	; 0xf6 <dis_write>

void string_LCD(unsigned char *str)
{
	int i;
	
	for(i=0;str[i]!='\0';i++) 
 13e:	89 91       	ld	r24, Y+
 140:	88 23       	and	r24, r24
 142:	d9 f7       	brne	.-10     	; 0x13a <string_LCD+0x8>
	{	dis_write(str[i]);
	 	
  	}
	return 0;
	}
 144:	df 91       	pop	r29
 146:	cf 91       	pop	r28
 148:	08 95       	ret

0000014a <lcd_init>:


void lcd_init(void)
{
 14a:	82 e0       	ldi	r24, 0x02	; 2
 14c:	0e 94 5d 00 	call	0xba	; 0xba <dis_cmd>
	
	dis_cmd(0x02);
	dis_cmd(0x28);
 150:	88 e2       	ldi	r24, 0x28	; 40
 152:	0e 94 5d 00 	call	0xba	; 0xba <dis_cmd>
	dis_cmd(0x0c);
 156:	8c e0       	ldi	r24, 0x0C	; 12
 158:	0e 94 5d 00 	call	0xba	; 0xba <dis_cmd>
	dis_cmd(0x01);
 15c:	81 e0       	ldi	r24, 0x01	; 1
 15e:	0e 94 5d 00 	call	0xba	; 0xba <dis_cmd>
}
 162:	08 95       	ret

00000164 <LCD_number>:

void LCD_number(unsigned int value)
{	dis_cmd(0x04);//for decrementing the cursor position
 164:	cf 93       	push	r28
 166:	df 93       	push	r29
 168:	ec 01       	movw	r28, r24
 16a:	84 e0       	ldi	r24, 0x04	; 4
 16c:	0e 94 5d 00 	call	0xba	; 0xba <dis_cmd>
 170:	0e c0       	rjmp	.+28     	; 0x18e <LCD_number+0x2a>
	unsigned int a=0;
	while(value!=0)
	{	a=value%10;
		dis_write(a+48);
 172:	ce 01       	movw	r24, r28
 174:	6a e0       	ldi	r22, 0x0A	; 10
 176:	70 e0       	ldi	r23, 0x00	; 0
 178:	0e 94 1d 01 	call	0x23a	; 0x23a <__udivmodhi4>
 17c:	80 5d       	subi	r24, 0xD0	; 208
 17e:	0e 94 7b 00 	call	0xf6	; 0xf6 <dis_write>
		value=value/10;
 182:	ce 01       	movw	r24, r28
 184:	6a e0       	ldi	r22, 0x0A	; 10
 186:	70 e0       	ldi	r23, 0x00	; 0
 188:	0e 94 1d 01 	call	0x23a	; 0x23a <__udivmodhi4>
 18c:	eb 01       	movw	r28, r22
}

void LCD_number(unsigned int value)
{	dis_cmd(0x04);//for decrementing the cursor position
	unsigned int a=0;
	while(value!=0)
 18e:	20 97       	sbiw	r28, 0x00	; 0
 190:	81 f7       	brne	.-32     	; 0x172 <LCD_number+0xe>
	{	a=value%10;
		dis_write(a+48);
		value=value/10;
	}
	dis_cmd(0x06);// for again incrementing the cursor position
 192:	86 e0       	ldi	r24, 0x06	; 6
 194:	0e 94 5d 00 	call	0xba	; 0xba <dis_cmd>
}
 198:	df 91       	pop	r29
 19a:	cf 91       	pop	r28
 19c:	08 95       	ret

0000019e <main>:
void LCD_number(unsigned int value);
void ADC_initi();
unsigned int read_ADC(unsigned char ch);

int main()
{
 19e:	cf 93       	push	r28
 1a0:	df 93       	push	r29
unsigned int x;
DDRA=0X00;	
 1a2:	1a ba       	out	0x1a, r1	; 26
DDRC=0XFF;
 1a4:	8f ef       	ldi	r24, 0xFF	; 255
 1a6:	84 bb       	out	0x14, r24	; 20
	dis_cmd(0x06);// for again incrementing the cursor position
}

void ADC_initi(void)
{
ADMUX=(1<<REFS0)|(1<<REFS1);
 1a8:	80 ec       	ldi	r24, 0xC0	; 192
 1aa:	87 b9       	out	0x07, r24	; 7
ADCSRA=(1<<ADEN)|(1<<ADATE)|(1<<ADPS0)|(1<<ADPS1)|(1<<ADPS2);
 1ac:	87 ea       	ldi	r24, 0xA7	; 167
 1ae:	86 b9       	out	0x06, r24	; 6
unsigned int x;
DDRA=0X00;	
DDRC=0XFF;
	
	ADC_initi();
	lcd_init();	
 1b0:	0e 94 a5 00 	call	0x14a	; 0x14a <lcd_init>
ADCSRA=(1<<ADEN)|(1<<ADATE)|(1<<ADPS0)|(1<<ADPS1)|(1<<ADPS2);
}
unsigned int read_ADC(unsigned char ch)
{
ch=ch&0b00000111;
ADMUX|=ch;
 1b4:	87 b1       	in	r24, 0x07	; 7
 1b6:	87 b9       	out	0x07, r24	; 7
ADCSRA|=(1<<ADSC);
 1b8:	36 9a       	sbi	0x06, 6	; 6
while(!(ADCSRA&(1<<ADIF)));
 1ba:	34 9b       	sbis	0x06, 4	; 6
 1bc:	fe cf       	rjmp	.-4      	; 0x1ba <main+0x1c>
ADCSRA|=(1<<ADIF);
 1be:	34 9a       	sbi	0x06, 4	; 6
return(ADC);
 1c0:	c4 b1       	in	r28, 0x04	; 4
 1c2:	d5 b1       	in	r29, 0x05	; 5
	while(1)
	{ 
	
   x=read_ADC(0);
   
dis_cmd(0xc2);
 1c4:	82 ec       	ldi	r24, 0xC2	; 194
 1c6:	0e 94 5d 00 	call	0xba	; 0xba <dis_cmd>
LCD_number(x);
 1ca:	ce 01       	movw	r24, r28
 1cc:	0e 94 b2 00 	call	0x164	; 0x164 <LCD_number>

if(x<=200)
 1d0:	c9 3c       	cpi	r28, 0xC9	; 201
 1d2:	d1 05       	cpc	r29, r1
 1d4:	30 f4       	brcc	.+12     	; 0x1e2 <main+0x44>
{
dis_cmd(0x80);
 1d6:	80 e8       	ldi	r24, 0x80	; 128
 1d8:	0e 94 5d 00 	call	0xba	; 0xba <dis_cmd>
string_LCD("BLACK");
 1dc:	80 e6       	ldi	r24, 0x60	; 96
 1de:	90 e0       	ldi	r25, 0x00	; 0
 1e0:	14 c0       	rjmp	.+40     	; 0x20a <main+0x6c>
}
else if(x>=300 &&x<=320)
 1e2:	ce 01       	movw	r24, r28
 1e4:	8c 52       	subi	r24, 0x2C	; 44
 1e6:	91 40       	sbci	r25, 0x01	; 1
 1e8:	45 97       	sbiw	r24, 0x15	; 21
 1ea:	30 f4       	brcc	.+12     	; 0x1f8 <main+0x5a>
{
dis_cmd(0x80);
 1ec:	80 e8       	ldi	r24, 0x80	; 128
 1ee:	0e 94 5d 00 	call	0xba	; 0xba <dis_cmd>
string_LCD("BROWN");
 1f2:	86 e6       	ldi	r24, 0x66	; 102
 1f4:	90 e0       	ldi	r25, 0x00	; 0
 1f6:	09 c0       	rjmp	.+18     	; 0x20a <main+0x6c>
}
else if(x>=400 && x<=410)
 1f8:	c0 59       	subi	r28, 0x90	; 144
 1fa:	d1 40       	sbci	r29, 0x01	; 1
 1fc:	2b 97       	sbiw	r28, 0x0b	; 11
 1fe:	40 f4       	brcc	.+16     	; 0x210 <main+0x72>
{
dis_cmd(0x80);
 200:	80 e8       	ldi	r24, 0x80	; 128
 202:	0e 94 5d 00 	call	0xba	; 0xba <dis_cmd>
string_LCD("GREEN");
 206:	8c e6       	ldi	r24, 0x6C	; 108
 208:	90 e0       	ldi	r25, 0x00	; 0
 20a:	0e 94 99 00 	call	0x132	; 0x132 <string_LCD>
 20e:	d2 cf       	rjmp	.-92     	; 0x1b4 <main+0x16>
}
else
dis_cmd(0x01);
 210:	81 e0       	ldi	r24, 0x01	; 1
 212:	0e 94 5d 00 	call	0xba	; 0xba <dis_cmd>
 216:	ce cf       	rjmp	.-100    	; 0x1b4 <main+0x16>

00000218 <ADC_initi>:
	}
	dis_cmd(0x06);// for again incrementing the cursor position
}

void ADC_initi(void)
{
 218:	80 ec       	ldi	r24, 0xC0	; 192
 21a:	87 b9       	out	0x07, r24	; 7
ADMUX=(1<<REFS0)|(1<<REFS1);
ADCSRA=(1<<ADEN)|(1<<ADATE)|(1<<ADPS0)|(1<<ADPS1)|(1<<ADPS2);
 21c:	87 ea       	ldi	r24, 0xA7	; 167
 21e:	86 b9       	out	0x06, r24	; 6
}
 220:	08 95       	ret

00000222 <read_ADC>:
unsigned int read_ADC(unsigned char ch)
{
 222:	97 b1       	in	r25, 0x07	; 7
 224:	87 70       	andi	r24, 0x07	; 7
 226:	89 2b       	or	r24, r25
 228:	87 b9       	out	0x07, r24	; 7
ch=ch&0b00000111;
ADMUX|=ch;
ADCSRA|=(1<<ADSC);
 22a:	36 9a       	sbi	0x06, 6	; 6
while(!(ADCSRA&(1<<ADIF)));
 22c:	34 9b       	sbis	0x06, 4	; 6
 22e:	fe cf       	rjmp	.-4      	; 0x22c <read_ADC+0xa>
ADCSRA|=(1<<ADIF);
 230:	34 9a       	sbi	0x06, 4	; 6
return(ADC);
 232:	24 b1       	in	r18, 0x04	; 4
 234:	35 b1       	in	r19, 0x05	; 5
}
 236:	c9 01       	movw	r24, r18
 238:	08 95       	ret

0000023a <__udivmodhi4>:
 23a:	aa 1b       	sub	r26, r26
 23c:	bb 1b       	sub	r27, r27
 23e:	51 e1       	ldi	r21, 0x11	; 17
 240:	07 c0       	rjmp	.+14     	; 0x250 <__udivmodhi4_ep>

00000242 <__udivmodhi4_loop>:
 242:	aa 1f       	adc	r26, r26
 244:	bb 1f       	adc	r27, r27
 246:	a6 17       	cp	r26, r22
 248:	b7 07       	cpc	r27, r23
 24a:	10 f0       	brcs	.+4      	; 0x250 <__udivmodhi4_ep>
 24c:	a6 1b       	sub	r26, r22
 24e:	b7 0b       	sbc	r27, r23

00000250 <__udivmodhi4_ep>:
 250:	88 1f       	adc	r24, r24
 252:	99 1f       	adc	r25, r25
 254:	5a 95       	dec	r21
 256:	a9 f7       	brne	.-22     	; 0x242 <__udivmodhi4_loop>
 258:	80 95       	com	r24
 25a:	90 95       	com	r25
 25c:	bc 01       	movw	r22, r24
 25e:	cd 01       	movw	r24, r26
 260:	08 95       	ret

00000262 <_exit>:
 262:	f8 94       	cli

00000264 <__stop_program>:
 264:	ff cf       	rjmp	.-2      	; 0x264 <__stop_program>
